
 Start  Stop   Length Name               Class              Group

 00000H 02B15H 02B15H _TEXT              CODE               (none)
 02B20H 03B20H 01000H STACK              STACK              (none)
 03B20H 04B20H 01000H _MAGIC             MAGIC              DGROUP 
 04B20H 04B22H 00002H _INIT              DATA               DGROUP 
 04B22H 05832H 00D10H _CONST             DATA               DGROUP 
 05840H 05895H 00055H _DATA              DATA               DGROUP 
 05890H 0C9E3H 07153H _BSS               BSS                DGROUP 
 0C9E0H 0C9E6H 00006H BSS_END            BSS                DGROUP 

  Address         Publics by Value

 0000:0000       __init0
 0000:000E       _p_leave
 0000:0016       __begin
 0000:0037       _p_abort
 0000:003E       __fp_0
 0000:003F       __fp_1
 0000:0040       __sigFp
 0000:0043       __math_excep
 0000:004C       __InitSetup
 0000:0069       __InitLoop
 0000:00C3       _p_exit
 0000:021F       _bmClearScreen
 0000:0283       _bmFillRect
 0000:02D1       _bmFillRect4
 0000:0324       _bmDrawRect
 0000:03C0       _bmClearRect
 0000:040E       _bmClearRect4
 0000:0461       _bmFillPattern4
 0000:0C28       _resetEnemy
 0000:0C2E       _getEnemyCell
 0000:0D2B       _getEnemy
 0000:0D45       _runAI
 0000:117D       _initPlayer
 0000:11B1       _updatePlayer
 0000:194E       _draw
 0000:1EDB       _loadSprite
 0000:203F       _projectSprite
 0000:20D4       _drawProjectedSprite
 0000:2280       _drawSprite
 0000:23C4       _drawDbgText
 0000:23E1       _loadMapData
 0000:240C       _getCellEncoding
 0000:2487       _loadMap
 0000:254C       _disableMemProtection
 0000:2551       _enableMemProtection
 0000:2556       _blitVideoMem
 0000:27F7       _main
 0000:285E       _p_atob
 0000:2863       _p_atos
 0000:2881       _p_close
 0000:2889       _p_setirpowerlevel
 0000:288E       _p_returntickcount
 0000:2893       _p_open
 0000:28A1       _p_read
 0000:28A9       _p_getscancodes
 0000:28AE       _p_sgclose
 0000:28B8       _p_sgcopyfr
 0000:28C2       _p_sgcopyto
 0000:28CC       _p_sgcreate
 0000:28D4       _p_slen
 0000:28D7       _wConnect
 0000:28DC       _wInvalidateWin
 0000:28E1       _wValidateWin
 0000:28E6       _wEndRedraw
 0000:28EB       _wCreateWindow
 0000:28F0       _wInitialiseWindowTree
 0000:28F5       _gPrintText
 0000:28FA       _gCreateGC
 0000:28FF       _wGetEventSpecial
 0000:2904       _wGetEventWait
 0000:2911       _wFlush
 0000:2916       _wBeginRedrawWinGC0
 0000:291D       _gCreateGC0
 0000:2924       _wCompatibilityMode
 0000:292C       __FatalErrorPos
 0000:2935       __FatalError
 0000:2939       _ExtCatTable
 0000:2939       _ClassTable
 0000:293B       N$StdRet
 0000:2945       N$SgnMol
 0000:2945       N$UnsMol
 0000:29A4       N$SgnDiv
 0000:2A5D       N$UnsMul
 0000:2AA1       N$LngShl
 0000:2AAC       N$LngShr
 0000:2AB7       N$CnsStk
 0000:2ABD       N$CnsPtr
 0000:2AC3       N$CnsIdx
 0000:2AC9       N$CnsOvr
 0000:2ACF       N$CnsRng
 0000:2AD5       N$CnsRet
 0000:2ADB       N$CnsCase
 0000:2AE1       N$CnsDiv
 0000:2AE7       N$CnsPVC
 0000:2B11       __FloatInit
 0000:2B14       __FloatJmpRestore
 0000:2B14       __FloatFinish
 0000:2B14       __FloatJmpSave
 0000:2B14       __FloatMathExcepDos
 0000:2B14       __FloatInitInstance
 03B2:0000       _DatWordDead
 03B2:0002       _DatHandNext
 03B2:0004       _DatHandPrev
 03B2:0006       _DatCountrySeg
 03B2:0008       _DatClassHandle
 03B2:000A       _DatClassPtr
 03B2:000C       _DatEClassHandle
 03B2:000E       _DatEClassPtr
 03B2:0010       _DatEnterFramePtr
 03B2:0012       _w_ws
 03B2:0014       _w_am
 03B2:0016       _wClientData
 03B2:0018       _wserv_channel
 03B2:001A       _T
 03B2:001C       _r
 03B2:001E       _DatOsFramePtr
 03B2:0020       _DatATFlag
 03B2:0021       _DatHeapLocked
 03B2:0022       _DatProcessNamePtr
 03B2:0024       _DatCommandPtr
 03B2:0026       _DatTest
 03B2:0028       _DatApp1
 03B2:002A       _DatApp2
 03B2:002C       _DatApp3
 03B2:002E       _DatApp4
 03B2:0030       _DatApp5
 03B2:0032       _DatApp6
 03B2:0034       _DatApp7
 03B2:0036       _DatDialogPtr
 03B2:0038       _DatGate
 03B2:003A       _DatLocked
 03B2:003C       _DatStatusNamePtr
 03B2:003E       _DatUsedPathNamePtr
 03B2:1000       __init_begin
 03B2:1002       __const_start
 03B2:1002       __init_start
 03B2:1004       _weapons
 03B2:14F6       _sincos_tab
 03B2:1D20       __data_start
 03B2:1D20       CoreSig@CnsHandler
 03B2:1D22       @InitPointer
 03B2:1D24       @InitPriority
 03B2:1D25       _blackBm
 03B2:1D27       _greyBm
 03B2:1D39       _enemyCount
 03B2:1D3D       _player
 03B2:1D66       _keys
 03B2:1D70       __bss_start
 03B2:1D70       __SH_sword
 03B2:1D72       @InitCount
 03B2:1D74       @InitEnd
 03B2:1D76       @InitDone
 03B2:1D78       @ExitCode
 03B2:1D7A       @StackContextSP
 03B2:1D7C       @StackContextBP
 03B2:1D7E       _screenBm
 03B2:457E       _enemyList
 03B2:6E8E       _map
 03B2:8EC0       __bss_end

Program entry point at 0000:0000
