
 Start  Stop   Length Name               Class              Group

 00000H 0299AH 0299AH _TEXT              CODE               (none)
 029A0H 039A0H 01000H STACK              STACK              (none)
 039A0H 049A0H 01000H _MAGIC             MAGIC              DGROUP 
 049A0H 049A2H 00002H _INIT              DATA               DGROUP 
 049A2H 0569AH 00CF8H _CONST             DATA               DGROUP 
 056A0H 056E5H 00045H _DATA              DATA               DGROUP 
 056E0H 0C82BH 0714BH _BSS               BSS                DGROUP 
 0C830H 0C836H 00006H BSS_END            BSS                DGROUP 

  Address         Publics by Value

 0000:0000       __init0
 0000:000E       _p_leave
 0000:0016       __begin
 0000:0037       _p_abort
 0000:003E       __fp_0
 0000:003F       __fp_1
 0000:0040       __sigFp
 0000:0043       __math_excep
 0000:004C       __InitSetup
 0000:0069       __InitLoop
 0000:00C3       _p_exit
 0000:021F       _bmClearScreen
 0000:0283       _bmFillRect
 0000:02D1       _bmFillRect4
 0000:0324       _bmDrawRect
 0000:03C0       _bmClearRect
 0000:040E       _bmClearRect4
 0000:0461       _bmFillPattern4
 0000:0C28       _resetEnemy
 0000:0C2E       _getEnemyCell
 0000:0D2B       _getEnemy
 0000:0D45       _runAI
 0000:110E       _initPlayer
 0000:1128       _updatePlayer
 0000:1185       _handlePlayerKey
 0000:18C7       _draw
 0000:1F2E       _loadSprite
 0000:2092       _projectSprite
 0000:2127       _drawSprite
 0000:22D3       _drawDbgText
 0000:22F0       _loadMapData
 0000:2313       _getCellEncoding
 0000:238E       _loadMap
 0000:2452       _disableMemProtection
 0000:2457       _enableMemProtection
 0000:245C       _blitVideoMem
 0000:267B       _main
 0000:26E2       _p_atob
 0000:26E7       _p_atos
 0000:2705       _p_close
 0000:270D       _p_date
 0000:2713       _p_open
 0000:2721       _p_read
 0000:2729       _p_sgclose
 0000:2733       _p_sgcopyfr
 0000:273D       _p_sgcopyto
 0000:2747       _p_sgcreate
 0000:274F       _p_sleept
 0000:2759       _p_slen
 0000:275C       _wConnect
 0000:2761       _wInvalidateWin
 0000:2766       _wValidateWin
 0000:276B       _wEndRedraw
 0000:2770       _wCreateWindow
 0000:2775       _wInitialiseWindowTree
 0000:277A       _gPrintText
 0000:277F       _gCreateGC
 0000:2784       _wGetEventSpecial
 0000:2789       _wGetEventWait
 0000:2796       _wFlush
 0000:279B       _wBeginRedrawWinGC0
 0000:27A2       _gCreateGC0
 0000:27A9       _wCompatibilityMode
 0000:27B1       __FatalErrorPos
 0000:27BA       __FatalError
 0000:27BE       _ExtCatTable
 0000:27BE       _ClassTable
 0000:27C0       N$StdRet
 0000:27CA       N$SgnMol
 0000:27CA       N$UnsMol
 0000:2829       N$SgnDiv
 0000:28E2       N$UnsMul
 0000:2926       N$LngShl
 0000:2931       N$LngShr
 0000:293C       N$CnsStk
 0000:2942       N$CnsPtr
 0000:2948       N$CnsIdx
 0000:294E       N$CnsOvr
 0000:2954       N$CnsRng
 0000:295A       N$CnsRet
 0000:2960       N$CnsCase
 0000:2966       N$CnsDiv
 0000:296C       N$CnsPVC
 0000:2996       __FloatInit
 0000:2999       __FloatJmpRestore
 0000:2999       __FloatFinish
 0000:2999       __FloatJmpSave
 0000:2999       __FloatMathExcepDos
 0000:2999       __FloatInitInstance
 039A:0000       _DatWordDead
 039A:0002       _DatHandNext
 039A:0004       _DatHandPrev
 039A:0006       _DatCountrySeg
 039A:0008       _DatClassHandle
 039A:000A       _DatClassPtr
 039A:000C       _DatEClassHandle
 039A:000E       _DatEClassPtr
 039A:0010       _DatEnterFramePtr
 039A:0012       _w_ws
 039A:0014       _w_am
 039A:0016       _wClientData
 039A:0018       _wserv_channel
 039A:001A       _T
 039A:001C       _r
 039A:001E       _DatOsFramePtr
 039A:0020       _DatATFlag
 039A:0021       _DatHeapLocked
 039A:0022       _DatProcessNamePtr
 039A:0024       _DatCommandPtr
 039A:0026       _DatTest
 039A:0028       _DatApp1
 039A:002A       _DatApp2
 039A:002C       _DatApp3
 039A:002E       _DatApp4
 039A:0030       _DatApp5
 039A:0032       _DatApp6
 039A:0034       _DatApp7
 039A:0036       _DatDialogPtr
 039A:0038       _DatGate
 039A:003A       _DatLocked
 039A:003C       _DatStatusNamePtr
 039A:003E       _DatUsedPathNamePtr
 039A:1000       __init_begin
 039A:1002       __const_start
 039A:1002       __init_start
 039A:14DE       _sincos_tab
 039A:1D00       __data_start
 039A:1D00       CoreSig@CnsHandler
 039A:1D02       @InitPointer
 039A:1D04       @InitPriority
 039A:1D05       _blackBm
 039A:1D07       _greyBm
 039A:1D19       _enemyCount
 039A:1D1D       _pos
 039A:1D40       __bss_start
 039A:1D40       __SH_sword
 039A:1D42       @InitCount
 039A:1D44       @InitEnd
 039A:1D46       @InitDone
 039A:1D48       @ExitCode
 039A:1D4A       @StackContextSP
 039A:1D4C       @StackContextBP
 039A:1D4E       _screenBm
 039A:454E       _enemyList
 039A:6E5E       _map
 039A:8E90       __bss_end

Program entry point at 0000:0000
