
 Start  Stop   Length Name               Class              Group

 00000H 033BAH 033BAH _TEXT              CODE               (none)
 033C0H 043C0H 01000H STACK              STACK              (none)
 043C0H 053C0H 01000H _MAGIC             MAGIC              DGROUP 
 053C0H 053C2H 00002H _INIT              DATA               DGROUP 
 053C2H 06101H 00D3FH _CONST             DATA               DGROUP 
 06110H 0616CH 0005CH _DATA              DATA               DGROUP 
 06160H 0E649H 084E9H _BSS               BSS                DGROUP 
 0E650H 0E65AH 0000AH BSS_END            BSS                DGROUP 

  Address         Publics by Value

 0000:0000       __init0
 0000:000E       _p_leave
 0000:0016       __begin
 0000:0037       _p_abort
 0000:003E       __fp_0
 0000:003F       __fp_1
 0000:0040       __sigFp
 0000:0043       __math_excep
 0000:004C       __InitSetup
 0000:0069       __InitLoop
 0000:00C3       _p_exit
 0000:021F       _bmClearScreen
 0000:0283       _bmFillRect
 0000:02D1       _bmFillRect4
 0000:0324       _bmDrawRect
 0000:03C0       _bmClearRect
 0000:040E       _bmClearRect4
 0000:0461       _bmFillPattern4
 0000:0C93       _resetEnemy
 0000:0C99       _getEnemyCell
 0000:0D6E       _getEnemy
 0000:0D88       _damageEnemy
 0000:0DD0       _runAI
 0000:12A5       _initPlayer
 0000:12E8       _updatePlayer
 0000:1B48       _draw
 0000:246B       _loadSprite
 0000:2636       _projectSprite
 0000:26CB       _drawProjectedSprite
 0000:2A87       _drawSprite
 0000:2C43       _drawDbgText
 0000:2C60       _loadMapData
 0000:2C8B       _getCellEncoding
 0000:2D06       _loadMap
 0000:2DCA       _disableMemProtection
 0000:2DCF       _enableMemProtection
 0000:2DD4       _blitVideoMem
 0000:309C       _main
 0000:3103       _p_atob
 0000:3108       _p_atos
 0000:3126       _p_close
 0000:312E       _p_setirpowerlevel
 0000:3133       _p_returntickcount
 0000:3138       _p_open
 0000:3146       _p_read
 0000:314E       _p_getscancodes
 0000:3153       _p_sgclose
 0000:315D       _p_sgcopyfr
 0000:3167       _p_sgcopyto
 0000:3171       _p_sgcreate
 0000:3179       _p_slen
 0000:317C       _wConnect
 0000:3181       _wInvalidateWin
 0000:3186       _wValidateWin
 0000:318B       _wEndRedraw
 0000:3190       _wCreateWindow
 0000:3195       _wInitialiseWindowTree
 0000:319A       _gPrintText
 0000:319F       _gCreateGC
 0000:31A4       _wGetEventSpecial
 0000:31A9       _wGetEventWait
 0000:31B6       _wFlush
 0000:31BB       _wBeginRedrawWinGC0
 0000:31C2       _gCreateGC0
 0000:31C9       _wCompatibilityMode
 0000:31D1       __FatalErrorPos
 0000:31DA       __FatalError
 0000:31DE       _ExtCatTable
 0000:31DE       _ClassTable
 0000:31E0       N$StdRet
 0000:31EA       N$SgnMol
 0000:31EA       N$UnsMol
 0000:3249       N$SgnDiv
 0000:3302       N$UnsMul
 0000:3346       N$LngShl
 0000:3351       N$LngShr
 0000:335C       N$CnsStk
 0000:3362       N$CnsPtr
 0000:3368       N$CnsIdx
 0000:336E       N$CnsOvr
 0000:3374       N$CnsRng
 0000:337A       N$CnsRet
 0000:3380       N$CnsCase
 0000:3386       N$CnsDiv
 0000:338C       N$CnsPVC
 0000:33B6       __FloatInit
 0000:33B9       __FloatJmpRestore
 0000:33B9       __FloatFinish
 0000:33B9       __FloatJmpSave
 0000:33B9       __FloatMathExcepDos
 0000:33B9       __FloatInitInstance
 043C:0000       _DatWordDead
 043C:0002       _DatHandNext
 043C:0004       _DatHandPrev
 043C:0006       _DatCountrySeg
 043C:0008       _DatClassHandle
 043C:000A       _DatClassPtr
 043C:000C       _DatEClassHandle
 043C:000E       _DatEClassPtr
 043C:0010       _DatEnterFramePtr
 043C:0012       _w_ws
 043C:0014       _w_am
 043C:0016       _wClientData
 043C:0018       _wserv_channel
 043C:001A       _T
 043C:001C       _r
 043C:001E       _DatOsFramePtr
 043C:0020       _DatATFlag
 043C:0021       _DatHeapLocked
 043C:0022       _DatProcessNamePtr
 043C:0024       _DatCommandPtr
 043C:0026       _DatTest
 043C:0028       _DatApp1
 043C:002A       _DatApp2
 043C:002C       _DatApp3
 043C:002E       _DatApp4
 043C:0030       _DatApp5
 043C:0032       _DatApp6
 043C:0034       _DatApp7
 043C:0036       _DatDialogPtr
 043C:0038       _DatGate
 043C:003A       _DatLocked
 043C:003C       _DatStatusNamePtr
 043C:003E       _DatUsedPathNamePtr
 043C:1000       __init_begin
 043C:1002       __const_start
 043C:1002       __init_start
 043C:1004       _enemyStats
 043C:1020       _weapons
 043C:151A       _sincos_tab
 043C:1D50       __data_start
 043C:1D50       CoreSig@CnsHandler
 043C:1D52       @InitPointer
 043C:1D54       @InitPriority
 043C:1D55       _blackBm
 043C:1D57       _greyBm
 043C:1D69       _enemyCount
 043C:1D6D       _player
 043C:1D9C       _keys
 043C:1DA0       __bss_start
 043C:1DA0       __SH_sword
 043C:1DA2       @InitCount
 043C:1DA4       @InitEnd
 043C:1DA6       @InitDone
 043C:1DA8       @ExitCode
 043C:1DAA       @StackContextSP
 043C:1DAC       @StackContextBP
 043C:1DAE       _screenBm
 043C:45AE       _enemyList
 043C:825A       _map
 043C:A290       __bss_end

Program entry point at 0000:0000
