
 Start  Stop   Length Name               Class              Group

 00000H 01CFEH 01CFEH _TEXT              CODE               (none)
 01D00H 02D00H 01000H STACK              STACK              (none)
 02D00H 03D00H 01000H _MAGIC             MAGIC              DGROUP 
 03D00H 03D02H 00002H _INIT              DATA               DGROUP 
 03D02H 049E0H 00CDEH _CONST             DATA               DGROUP 
 049E0H 04A23H 00043H _DATA              DATA               DGROUP 
 04A30H 0A6E7H 05CB7H _BSS               BSS                DGROUP 
 0A6E0H 0A6E6H 00006H BSS_END            BSS                DGROUP 

  Address         Publics by Value

 0000:0000       __init0
 0000:000E       _p_leave
 0000:0016       __begin
 0000:0037       _p_abort
 0000:003E       __fp_0
 0000:003F       __fp_1
 0000:0040       __sigFp
 0000:0043       __math_excep
 0000:004C       __InitSetup
 0000:0069       __InitLoop
 0000:00C3       _p_exit
 0000:021F       _bmClearScreen
 0000:0283       _bmFillRect
 0000:02D1       _bmFillRect4
 0000:0324       _bmDrawRect
 0000:03C0       _bmClearRect
 0000:040E       _bmClearRect4
 0000:0461       _bmFillPattern4
 0000:0BF9       _draw
 0000:11E7       _loadSprite
 0000:12CD       _projectSprite
 0000:138C       _drawSprite
 0000:1538       _setDbgInt
 0000:154D       _drawDbgText
 0000:156A       _loadMapData
 0000:1579       _loadMap
 0000:19CF       _main
 0000:1A36       _p_atob
 0000:1A3B       _p_atos
 0000:1A59       _p_close
 0000:1A61       _p_date
 0000:1A67       _p_open
 0000:1A75       _p_read
 0000:1A7D       _p_sgclose
 0000:1A87       _p_sgcopyfr
 0000:1A91       _p_sgcopyto
 0000:1A9B       _p_sgcreate
 0000:1AA3       _p_sgopen
 0000:1AAB       _p_sleep
 0000:1AB5       _p_slen
 0000:1AB8       _wConnect
 0000:1ABD       _wInvalidateWin
 0000:1AC2       _wValidateWin
 0000:1AC7       _wEndRedraw
 0000:1ACC       _wCreateWindow
 0000:1AD1       _wInitialiseWindowTree
 0000:1AD6       _gCreateBit
 0000:1ADF       _gPrintText
 0000:1AE4       _gCopyBit
 0000:1AE9       _gCreateGC
 0000:1AEE       _wGetEventSpecial
 0000:1AF3       _wFlush
 0000:1AF8       _wBeginRedrawWinGC0
 0000:1AFF       _gCreateGC0
 0000:1B06       _gSetGC0
 0000:1B0D       _wCompatibilityMode
 0000:1B15       __FatalErrorPos
 0000:1B1E       __FatalError
 0000:1B22       _ExtCatTable
 0000:1B22       _ClassTable
 0000:1B24       N$StdRet
 0000:1B2E       N$SgnMol
 0000:1B2E       N$UnsMol
 0000:1B8D       N$SgnDiv
 0000:1C46       N$UnsMul
 0000:1C8A       N$LngShl
 0000:1C95       N$LngShr
 0000:1CA0       N$CnsStk
 0000:1CA6       N$CnsPtr
 0000:1CAC       N$CnsIdx
 0000:1CB2       N$CnsOvr
 0000:1CB8       N$CnsRng
 0000:1CBE       N$CnsRet
 0000:1CC4       N$CnsCase
 0000:1CCA       N$CnsDiv
 0000:1CD0       N$CnsPVC
 0000:1CFA       __FloatInit
 0000:1CFD       __FloatJmpRestore
 0000:1CFD       __FloatFinish
 0000:1CFD       __FloatJmpSave
 0000:1CFD       __FloatMathExcepDos
 0000:1CFD       __FloatInitInstance
 02D0:0000       _DatWordDead
 02D0:0002       _DatHandNext
 02D0:0004       _DatHandPrev
 02D0:0006       _DatCountrySeg
 02D0:0008       _DatClassHandle
 02D0:000A       _DatClassPtr
 02D0:000C       _DatEClassHandle
 02D0:000E       _DatEClassPtr
 02D0:0010       _DatEnterFramePtr
 02D0:0012       _w_ws
 02D0:0014       _w_am
 02D0:0016       _wClientData
 02D0:0018       _wserv_channel
 02D0:001A       _T
 02D0:001C       _r
 02D0:001E       _DatOsFramePtr
 02D0:0020       _DatATFlag
 02D0:0021       _DatHeapLocked
 02D0:0022       _DatProcessNamePtr
 02D0:0024       _DatCommandPtr
 02D0:0026       _DatTest
 02D0:0028       _DatApp1
 02D0:002A       _DatApp2
 02D0:002C       _DatApp3
 02D0:002E       _DatApp4
 02D0:0030       _DatApp5
 02D0:0032       _DatApp6
 02D0:0034       _DatApp7
 02D0:0036       _DatDialogPtr
 02D0:0038       _DatGate
 02D0:003A       _DatLocked
 02D0:003C       _DatStatusNamePtr
 02D0:003E       _DatUsedPathNamePtr
 02D0:1000       __init_begin
 02D0:1002       __const_start
 02D0:1002       __init_start
 02D0:14B4       _sincos_tab
 02D0:1CE0       __data_start
 02D0:1CE0       CoreSig@CnsHandler
 02D0:1CE2       @InitPointer
 02D0:1CE4       @InitPriority
 02D0:1CE5       _blackBm
 02D0:1CE7       _greyBm
 02D0:1CFB       _pos
 02D0:1D30       __bss_start
 02D0:1D30       __SH_sword
 02D0:1D32       @InitCount
 02D0:1D34       @InitEnd
 02D0:1D36       @InitDone
 02D0:1D38       @ExitCode
 02D0:1D3A       @StackContextSP
 02D0:1D3C       @StackContextBP
 02D0:1D3E       _screenBm
 02D0:69AE       _map
 02D0:79E0       __bss_end

Program entry point at 0000:0000
