
 Start  Stop   Length Name               Class              Group

 00000H 03183H 03183H _TEXT              CODE               (none)
 03190H 04190H 01000H STACK              STACK              (none)
 04190H 05190H 01000H _MAGIC             MAGIC              DGROUP 
 05190H 05192H 00002H _INIT              DATA               DGROUP 
 05192H 05EAAH 00D18H _CONST             DATA               DGROUP 
 05EB0H 05EFFH 0004FH _DATA              DATA               DGROUP 
 05F00H 0E3ADH 084ADH _BSS               BSS                DGROUP 
 0E3B0H 0E3BAH 0000AH BSS_END            BSS                DGROUP 

  Address         Publics by Value

 0000:0000       __init0
 0000:000E       _p_leave
 0000:0016       __begin
 0000:0037       _p_abort
 0000:003E       __fp_0
 0000:003F       __fp_1
 0000:0040       __sigFp
 0000:0043       __math_excep
 0000:004C       __InitSetup
 0000:0069       __InitLoop
 0000:00C3       _p_exit
 0000:021F       _bmClearScreen
 0000:0283       _bmFillRect
 0000:02D1       _bmFillRect4
 0000:0324       _bmDrawRect
 0000:03C0       _bmClearRect
 0000:040E       _bmClearRect4
 0000:0461       _bmFillPattern4
 0000:0C30       _resetEnemy
 0000:0C36       _getEnemyCell
 0000:0D38       _getEnemy
 0000:0D52       _runAI
 0000:118A       _initPlayer
 0000:11BE       _updatePlayer
 0000:195B       _draw
 0000:225B       _loadSprite
 0000:2426       _projectSprite
 0000:24BB       _drawProjectedSprite
 0000:2877       _drawSprite
 0000:2A33       _drawDbgText
 0000:2A50       _loadMapData
 0000:2A7B       _getCellEncoding
 0000:2AF6       _loadMap
 0000:2BBA       _disableMemProtection
 0000:2BBF       _enableMemProtection
 0000:2BC4       _blitVideoMem
 0000:2E65       _main
 0000:2ECC       _p_atob
 0000:2ED1       _p_atos
 0000:2EEF       _p_close
 0000:2EF7       _p_setirpowerlevel
 0000:2EFC       _p_returntickcount
 0000:2F01       _p_open
 0000:2F0F       _p_read
 0000:2F17       _p_getscancodes
 0000:2F1C       _p_sgclose
 0000:2F26       _p_sgcopyfr
 0000:2F30       _p_sgcopyto
 0000:2F3A       _p_sgcreate
 0000:2F42       _p_slen
 0000:2F45       _wConnect
 0000:2F4A       _wInvalidateWin
 0000:2F4F       _wValidateWin
 0000:2F54       _wEndRedraw
 0000:2F59       _wCreateWindow
 0000:2F5E       _wInitialiseWindowTree
 0000:2F63       _gPrintText
 0000:2F68       _gCreateGC
 0000:2F6D       _wGetEventSpecial
 0000:2F72       _wGetEventWait
 0000:2F7F       _wFlush
 0000:2F84       _wBeginRedrawWinGC0
 0000:2F8B       _gCreateGC0
 0000:2F92       _wCompatibilityMode
 0000:2F9A       __FatalErrorPos
 0000:2FA3       __FatalError
 0000:2FA7       _ExtCatTable
 0000:2FA7       _ClassTable
 0000:2FA9       N$StdRet
 0000:2FB3       N$SgnMol
 0000:2FB3       N$UnsMol
 0000:3012       N$SgnDiv
 0000:30CB       N$UnsMul
 0000:310F       N$LngShl
 0000:311A       N$LngShr
 0000:3125       N$CnsStk
 0000:312B       N$CnsPtr
 0000:3131       N$CnsIdx
 0000:3137       N$CnsOvr
 0000:313D       N$CnsRng
 0000:3143       N$CnsRet
 0000:3149       N$CnsCase
 0000:314F       N$CnsDiv
 0000:3155       N$CnsPVC
 0000:317F       __FloatInit
 0000:3182       __FloatJmpRestore
 0000:3182       __FloatFinish
 0000:3182       __FloatJmpSave
 0000:3182       __FloatMathExcepDos
 0000:3182       __FloatInitInstance
 0419:0000       _DatWordDead
 0419:0002       _DatHandNext
 0419:0004       _DatHandPrev
 0419:0006       _DatCountrySeg
 0419:0008       _DatClassHandle
 0419:000A       _DatClassPtr
 0419:000C       _DatEClassHandle
 0419:000E       _DatEClassPtr
 0419:0010       _DatEnterFramePtr
 0419:0012       _w_ws
 0419:0014       _w_am
 0419:0016       _wClientData
 0419:0018       _wserv_channel
 0419:001A       _T
 0419:001C       _r
 0419:001E       _DatOsFramePtr
 0419:0020       _DatATFlag
 0419:0021       _DatHeapLocked
 0419:0022       _DatProcessNamePtr
 0419:0024       _DatCommandPtr
 0419:0026       _DatTest
 0419:0028       _DatApp1
 0419:002A       _DatApp2
 0419:002C       _DatApp3
 0419:002E       _DatApp4
 0419:0030       _DatApp5
 0419:0032       _DatApp6
 0419:0034       _DatApp7
 0419:0036       _DatDialogPtr
 0419:0038       _DatGate
 0419:003A       _DatLocked
 0419:003C       _DatStatusNamePtr
 0419:003E       _DatUsedPathNamePtr
 0419:1000       __init_begin
 0419:1002       __const_start
 0419:1002       __init_start
 0419:1004       _weapons
 0419:14FE       _sincos_tab
 0419:1D20       __data_start
 0419:1D20       CoreSig@CnsHandler
 0419:1D22       @InitPointer
 0419:1D24       @InitPriority
 0419:1D25       _blackBm
 0419:1D27       _greyBm
 0419:1D39       _enemyCount
 0419:1D3D       _player
 0419:1D68       _keys
 0419:1D70       __bss_start
 0419:1D70       __SH_sword
 0419:1D72       @InitCount
 0419:1D74       @InitEnd
 0419:1D76       @InitDone
 0419:1D78       @ExitCode
 0419:1D7A       @StackContextSP
 0419:1D7C       @StackContextBP
 0419:1D7E       _screenBm
 0419:457E       _enemyList
 0419:81EA       _map
 0419:A220       __bss_end

Program entry point at 0000:0000
