
 Start  Stop   Length Name               Class              Group

 00000H 03393H 03393H _TEXT              CODE               (none)
 033A0H 043A0H 01000H STACK              STACK              (none)
 043A0H 053A0H 01000H _MAGIC             MAGIC              DGROUP 
 053A0H 053A2H 00002H _INIT              DATA               DGROUP 
 053A2H 060D6H 00D34H _CONST             DATA               DGROUP 
 060E0H 06137H 00057H _DATA              DATA               DGROUP 
 06130H 0E619H 084E9H _BSS               BSS                DGROUP 
 0E620H 0E62AH 0000AH BSS_END            BSS                DGROUP 

  Address         Publics by Value

 0000:0000       __init0
 0000:000E       _p_leave
 0000:0016       __begin
 0000:0037       _p_abort
 0000:003E       __fp_0
 0000:003F       __fp_1
 0000:0040       __sigFp
 0000:0043       __math_excep
 0000:004C       __InitSetup
 0000:0069       __InitLoop
 0000:00C3       _p_exit
 0000:021F       _bmClearScreen
 0000:0283       _bmFillRect
 0000:02D1       _bmFillRect4
 0000:0324       _bmDrawRect
 0000:03C0       _bmClearRect
 0000:040E       _bmClearRect4
 0000:0461       _bmFillPattern4
 0000:0C93       _resetEnemy
 0000:0C99       _getEnemyCell
 0000:0D6E       _getEnemy
 0000:0D88       _damageEnemy
 0000:0DD0       _runAI
 0000:12A5       _initPlayer
 0000:12E8       _updatePlayer
 0000:1B48       _draw
 0000:246B       _loadSprite
 0000:2636       _projectSprite
 0000:26CB       _drawProjectedSprite
 0000:2A87       _drawSprite
 0000:2C43       _drawDbgText
 0000:2C60       _loadMapData
 0000:2C8B       _getCellEncoding
 0000:2D06       _loadMap
 0000:2DCA       _disableMemProtection
 0000:2DCF       _enableMemProtection
 0000:2DD4       _blitVideoMem
 0000:3075       _main
 0000:30DC       _p_atob
 0000:30E1       _p_atos
 0000:30FF       _p_close
 0000:3107       _p_setirpowerlevel
 0000:310C       _p_returntickcount
 0000:3111       _p_open
 0000:311F       _p_read
 0000:3127       _p_getscancodes
 0000:312C       _p_sgclose
 0000:3136       _p_sgcopyfr
 0000:3140       _p_sgcopyto
 0000:314A       _p_sgcreate
 0000:3152       _p_slen
 0000:3155       _wConnect
 0000:315A       _wInvalidateWin
 0000:315F       _wValidateWin
 0000:3164       _wEndRedraw
 0000:3169       _wCreateWindow
 0000:316E       _wInitialiseWindowTree
 0000:3173       _gPrintText
 0000:3178       _gCreateGC
 0000:317D       _wGetEventSpecial
 0000:3182       _wGetEventWait
 0000:318F       _wFlush
 0000:3194       _wBeginRedrawWinGC0
 0000:319B       _gCreateGC0
 0000:31A2       _wCompatibilityMode
 0000:31AA       __FatalErrorPos
 0000:31B3       __FatalError
 0000:31B7       _ExtCatTable
 0000:31B7       _ClassTable
 0000:31B9       N$StdRet
 0000:31C3       N$SgnMol
 0000:31C3       N$UnsMol
 0000:3222       N$SgnDiv
 0000:32DB       N$UnsMul
 0000:331F       N$LngShl
 0000:332A       N$LngShr
 0000:3335       N$CnsStk
 0000:333B       N$CnsPtr
 0000:3341       N$CnsIdx
 0000:3347       N$CnsOvr
 0000:334D       N$CnsRng
 0000:3353       N$CnsRet
 0000:3359       N$CnsCase
 0000:335F       N$CnsDiv
 0000:3365       N$CnsPVC
 0000:338F       __FloatInit
 0000:3392       __FloatJmpRestore
 0000:3392       __FloatFinish
 0000:3392       __FloatJmpSave
 0000:3392       __FloatMathExcepDos
 0000:3392       __FloatInitInstance
 043A:0000       _DatWordDead
 043A:0002       _DatHandNext
 043A:0004       _DatHandPrev
 043A:0006       _DatCountrySeg
 043A:0008       _DatClassHandle
 043A:000A       _DatClassPtr
 043A:000C       _DatEClassHandle
 043A:000E       _DatEClassPtr
 043A:0010       _DatEnterFramePtr
 043A:0012       _w_ws
 043A:0014       _w_am
 043A:0016       _wClientData
 043A:0018       _wserv_channel
 043A:001A       _T
 043A:001C       _r
 043A:001E       _DatOsFramePtr
 043A:0020       _DatATFlag
 043A:0021       _DatHeapLocked
 043A:0022       _DatProcessNamePtr
 043A:0024       _DatCommandPtr
 043A:0026       _DatTest
 043A:0028       _DatApp1
 043A:002A       _DatApp2
 043A:002C       _DatApp3
 043A:002E       _DatApp4
 043A:0030       _DatApp5
 043A:0032       _DatApp6
 043A:0034       _DatApp7
 043A:0036       _DatDialogPtr
 043A:0038       _DatGate
 043A:003A       _DatLocked
 043A:003C       _DatStatusNamePtr
 043A:003E       _DatUsedPathNamePtr
 043A:1000       __init_begin
 043A:1002       __const_start
 043A:1002       __init_start
 043A:1004       _enemyStats
 043A:1020       _weapons
 043A:151A       _sincos_tab
 043A:1D40       __data_start
 043A:1D40       CoreSig@CnsHandler
 043A:1D42       @InitPointer
 043A:1D44       @InitPriority
 043A:1D45       _blackBm
 043A:1D47       _greyBm
 043A:1D59       _enemyCount
 043A:1D5D       _player
 043A:1D8C       _keys
 043A:1D90       __bss_start
 043A:1D90       __SH_sword
 043A:1D92       @InitCount
 043A:1D94       @InitEnd
 043A:1D96       @InitDone
 043A:1D98       @ExitCode
 043A:1D9A       @StackContextSP
 043A:1D9C       @StackContextBP
 043A:1D9E       _screenBm
 043A:459E       _enemyList
 043A:824A       _map
 043A:A280       __bss_end

Program entry point at 0000:0000
