
 Start  Stop   Length Name               Class              Group

 00000H 030ADH 030ADH _TEXT              CODE               (none)
 030B0H 040B0H 01000H STACK              STACK              (none)
 040B0H 050B0H 01000H _MAGIC             MAGIC              DGROUP 
 050B0H 050B2H 00002H _INIT              DATA               DGROUP 
 050B2H 05DCAH 00D18H _CONST             DATA               DGROUP 
 05DD0H 05E1FH 0004FH _DATA              DATA               DGROUP 
 05E20H 0E28DH 0846DH _BSS               BSS                DGROUP 
 0E290H 0E29AH 0000AH BSS_END            BSS                DGROUP 

  Address         Publics by Value

 0000:0000       __init0
 0000:000E       _p_leave
 0000:0016       __begin
 0000:0037       _p_abort
 0000:003E       __fp_0
 0000:003F       __fp_1
 0000:0040       __sigFp
 0000:0043       __math_excep
 0000:004C       __InitSetup
 0000:0069       __InitLoop
 0000:00C3       _p_exit
 0000:021F       _bmClearScreen
 0000:0283       _bmFillRect
 0000:02D1       _bmFillRect4
 0000:0324       _bmDrawRect
 0000:03C0       _bmClearRect
 0000:040E       _bmClearRect4
 0000:0461       _bmFillPattern4
 0000:0C28       _resetEnemy
 0000:0C2E       _getEnemyCell
 0000:0D2B       _getEnemy
 0000:0D45       _runAI
 0000:117D       _initPlayer
 0000:11B1       _updatePlayer
 0000:194E       _draw
 0000:21B8       _loadSprite
 0000:2383       _projectSprite
 0000:2418       _drawProjectedSprite
 0000:27A0       _drawSprite
 0000:295C       _drawDbgText
 0000:2979       _loadMapData
 0000:29A4       _getCellEncoding
 0000:2A1F       _loadMap
 0000:2AE4       _disableMemProtection
 0000:2AE9       _enableMemProtection
 0000:2AEE       _blitVideoMem
 0000:2D8F       _main
 0000:2DF6       _p_atob
 0000:2DFB       _p_atos
 0000:2E19       _p_close
 0000:2E21       _p_setirpowerlevel
 0000:2E26       _p_returntickcount
 0000:2E2B       _p_open
 0000:2E39       _p_read
 0000:2E41       _p_getscancodes
 0000:2E46       _p_sgclose
 0000:2E50       _p_sgcopyfr
 0000:2E5A       _p_sgcopyto
 0000:2E64       _p_sgcreate
 0000:2E6C       _p_slen
 0000:2E6F       _wConnect
 0000:2E74       _wInvalidateWin
 0000:2E79       _wValidateWin
 0000:2E7E       _wEndRedraw
 0000:2E83       _wCreateWindow
 0000:2E88       _wInitialiseWindowTree
 0000:2E8D       _gPrintText
 0000:2E92       _gCreateGC
 0000:2E97       _wGetEventSpecial
 0000:2E9C       _wGetEventWait
 0000:2EA9       _wFlush
 0000:2EAE       _wBeginRedrawWinGC0
 0000:2EB5       _gCreateGC0
 0000:2EBC       _wCompatibilityMode
 0000:2EC4       __FatalErrorPos
 0000:2ECD       __FatalError
 0000:2ED1       _ExtCatTable
 0000:2ED1       _ClassTable
 0000:2ED3       N$StdRet
 0000:2EDD       N$SgnMol
 0000:2EDD       N$UnsMol
 0000:2F3C       N$SgnDiv
 0000:2FF5       N$UnsMul
 0000:3039       N$LngShl
 0000:3044       N$LngShr
 0000:304F       N$CnsStk
 0000:3055       N$CnsPtr
 0000:305B       N$CnsIdx
 0000:3061       N$CnsOvr
 0000:3067       N$CnsRng
 0000:306D       N$CnsRet
 0000:3073       N$CnsCase
 0000:3079       N$CnsDiv
 0000:307F       N$CnsPVC
 0000:30A9       __FloatInit
 0000:30AC       __FloatJmpRestore
 0000:30AC       __FloatFinish
 0000:30AC       __FloatJmpSave
 0000:30AC       __FloatMathExcepDos
 0000:30AC       __FloatInitInstance
 040B:0000       _DatWordDead
 040B:0002       _DatHandNext
 040B:0004       _DatHandPrev
 040B:0006       _DatCountrySeg
 040B:0008       _DatClassHandle
 040B:000A       _DatClassPtr
 040B:000C       _DatEClassHandle
 040B:000E       _DatEClassPtr
 040B:0010       _DatEnterFramePtr
 040B:0012       _w_ws
 040B:0014       _w_am
 040B:0016       _wClientData
 040B:0018       _wserv_channel
 040B:001A       _T
 040B:001C       _r
 040B:001E       _DatOsFramePtr
 040B:0020       _DatATFlag
 040B:0021       _DatHeapLocked
 040B:0022       _DatProcessNamePtr
 040B:0024       _DatCommandPtr
 040B:0026       _DatTest
 040B:0028       _DatApp1
 040B:002A       _DatApp2
 040B:002C       _DatApp3
 040B:002E       _DatApp4
 040B:0030       _DatApp5
 040B:0032       _DatApp6
 040B:0034       _DatApp7
 040B:0036       _DatDialogPtr
 040B:0038       _DatGate
 040B:003A       _DatLocked
 040B:003C       _DatStatusNamePtr
 040B:003E       _DatUsedPathNamePtr
 040B:1000       __init_begin
 040B:1002       __const_start
 040B:1002       __init_start
 040B:1004       _weapons
 040B:14FE       _sincos_tab
 040B:1D20       __data_start
 040B:1D20       CoreSig@CnsHandler
 040B:1D22       @InitPointer
 040B:1D24       @InitPriority
 040B:1D25       _blackBm
 040B:1D27       _greyBm
 040B:1D39       _enemyCount
 040B:1D3D       _player
 040B:1D68       _keys
 040B:1D70       __bss_start
 040B:1D70       __SH_sword
 040B:1D72       @InitCount
 040B:1D74       @InitEnd
 040B:1D76       @InitDone
 040B:1D78       @ExitCode
 040B:1D7A       @StackContextSP
 040B:1D7C       @StackContextBP
 040B:1D7E       _screenBm
 040B:457E       _enemyList
 040B:81AA       _map
 040B:A1E0       __bss_end

Program entry point at 0000:0000
