
 Start  Stop   Length Name               Class              Group

 00000H 03492H 03492H _TEXT              CODE               (none)
 034A0H 044A0H 01000H STACK              STACK              (none)
 044A0H 054A0H 01000H _MAGIC             MAGIC              DGROUP 
 054A0H 054A2H 00002H _INIT              DATA               DGROUP 
 054A2H 061E5H 00D43H _CONST             DATA               DGROUP 
 061F0H 06234H 00044H _DATA              DATA               DGROUP 
 06230H 0E71DH 084EDH _BSS               BSS                DGROUP 
 0E720H 0E72AH 0000AH BSS_END            BSS                DGROUP 

  Address         Publics by Value

 0000:0000       __init0
 0000:000E       _p_leave
 0000:0016       __begin
 0000:0037       _p_abort
 0000:003E       __fp_0
 0000:003F       __fp_1
 0000:0040       __sigFp
 0000:0043       __math_excep
 0000:004C       __InitSetup
 0000:0069       __InitLoop
 0000:00C3       _p_exit
 0000:01D4       _bmClearScreen
 0000:0238       _bmDraw4
 0000:034B       _bmFillRect
 0000:039A       _bmDrawRect
 0000:043E       _bmClearRect
 0000:0C30       _resetEnemy
 0000:0C36       _getEnemyCell
 0000:0D0B       _getEnemy
 0000:0D25       _enemyBlocksPosition
 0000:0E04       _damageEnemy
 0000:0E4C       _runAI
 0000:133E       _initPlayer
 0000:1381       _updatePlayer
 0000:1BFF       _draw
 0000:2535       _loadSprite
 0000:2700       _projectSprite
 0000:2795       _drawProjectedSprite
 0000:2B63       _drawSprite
 0000:2D0A       _drawDbgText
 0000:2D27       _loadMapData
 0000:2D5A       _getCellEncoding
 0000:2DD5       _loadMap
 0000:2E9A       _disableMemProtection
 0000:2E9F       _enableMemProtection
 0000:2EA4       _blitVideoMem
 0000:3174       _main
 0000:31DB       _p_atob
 0000:31E0       _p_atos
 0000:31FE       _p_close
 0000:3206       _p_setirpowerlevel
 0000:320B       _p_returntickcount
 0000:3210       _p_open
 0000:321E       _p_read
 0000:3226       _p_getscancodes
 0000:322B       _p_sgclose
 0000:3235       _p_sgcopyfr
 0000:323F       _p_sgcopyto
 0000:3249       _p_sgcreate
 0000:3251       _p_slen
 0000:3254       _wConnect
 0000:3259       _wInvalidateWin
 0000:325E       _wValidateWin
 0000:3263       _wEndRedraw
 0000:3268       _wCreateWindow
 0000:326D       _wInitialiseWindowTree
 0000:3272       _gPrintText
 0000:3277       _gCreateGC
 0000:327C       _wGetEventSpecial
 0000:3281       _wGetEventWait
 0000:328E       _wFlush
 0000:3293       _wBeginRedrawWinGC0
 0000:329A       _gCreateGC0
 0000:32A1       _wCompatibilityMode
 0000:32A9       __FatalErrorPos
 0000:32B2       __FatalError
 0000:32B6       _ExtCatTable
 0000:32B6       _ClassTable
 0000:32B8       N$StdRet
 0000:32C2       N$SgnMol
 0000:32C2       N$UnsMol
 0000:3321       N$SgnDiv
 0000:33DA       N$UnsMul
 0000:341E       N$LngShl
 0000:3429       N$LngShr
 0000:3434       N$CnsStk
 0000:343A       N$CnsPtr
 0000:3440       N$CnsIdx
 0000:3446       N$CnsOvr
 0000:344C       N$CnsRng
 0000:3452       N$CnsRet
 0000:3458       N$CnsCase
 0000:345E       N$CnsDiv
 0000:3464       N$CnsPVC
 0000:348E       __FloatInit
 0000:3491       __FloatJmpRestore
 0000:3491       __FloatFinish
 0000:3491       __FloatJmpSave
 0000:3491       __FloatMathExcepDos
 0000:3491       __FloatInitInstance
 044A:0000       _DatWordDead
 044A:0002       _DatHandNext
 044A:0004       _DatHandPrev
 044A:0006       _DatCountrySeg
 044A:0008       _DatClassHandle
 044A:000A       _DatClassPtr
 044A:000C       _DatEClassHandle
 044A:000E       _DatEClassPtr
 044A:0010       _DatEnterFramePtr
 044A:0012       _w_ws
 044A:0014       _w_am
 044A:0016       _wClientData
 044A:0018       _wserv_channel
 044A:001A       _T
 044A:001C       _r
 044A:001E       _DatOsFramePtr
 044A:0020       _DatATFlag
 044A:0021       _DatHeapLocked
 044A:0022       _DatProcessNamePtr
 044A:0024       _DatCommandPtr
 044A:0026       _DatTest
 044A:0028       _DatApp1
 044A:002A       _DatApp2
 044A:002C       _DatApp3
 044A:002E       _DatApp4
 044A:0030       _DatApp5
 044A:0032       _DatApp6
 044A:0034       _DatApp7
 044A:0036       _DatDialogPtr
 044A:0038       _DatGate
 044A:003A       _DatLocked
 044A:003C       _DatStatusNamePtr
 044A:003E       _DatUsedPathNamePtr
 044A:1000       __init_begin
 044A:1002       __const_start
 044A:1002       __init_start
 044A:1004       _enemyStats
 044A:1020       _weapons
 044A:151E       _sincos_tab
 044A:1D50       __data_start
 044A:1D50       CoreSig@CnsHandler
 044A:1D52       @InitPointer
 044A:1D54       @InitPriority
 044A:1D55       _enemyCount
 044A:1D59       _player
 044A:1D7A       _keys
 044A:1D90       __bss_start
 044A:1D90       __SH_sword
 044A:1D92       @InitCount
 044A:1D94       @InitEnd
 044A:1D96       @InitDone
 044A:1D98       @ExitCode
 044A:1D9A       @StackContextSP
 044A:1D9C       @StackContextBP
 044A:1D9E       _screenBm
 044A:459E       _enemyList
 044A:824A       _map
 044A:A280       __bss_end

Program entry point at 0000:0000
