
 Start  Stop   Length Name               Class              Group

 00000H 01D26H 01D26H _TEXT              CODE               (none)
 01D30H 02D30H 01000H STACK              STACK              (none)
 02D30H 03D30H 01000H _MAGIC             MAGIC              DGROUP 
 03D30H 03D32H 00002H _INIT              DATA               DGROUP 
 03D32H 04A02H 00CD0H _CONST             DATA               DGROUP 
 04A10H 04A63H 00053H _DATA              DATA               DGROUP 
 04A60H 0B6F5H 06C95H _BSS               BSS                DGROUP 
 0B6F0H 0B6F6H 00006H BSS_END            BSS                DGROUP 

  Address         Publics by Value

 0000:0000       __init0
 0000:000E       _p_leave
 0000:0016       __begin
 0000:0037       _p_abort
 0000:003E       __fp_0
 0000:003F       __fp_1
 0000:0040       __sigFp
 0000:0043       __math_excep
 0000:004C       __InitSetup
 0000:0069       __InitLoop
 0000:00C3       _p_exit
 0000:021F       _bmClearScreen
 0000:0283       _bmFillRect
 0000:02D1       _bmFillRect4
 0000:0324       _bmDrawRect
 0000:03C0       _bmClearRect
 0000:040E       _bmClearRect4
 0000:0461       _bmFillPattern4
 0000:0BF9       _draw
 0000:11E7       _loadSprite
 0000:12CC       _projectSprite
 0000:1377       _drawSprite
 0000:152F       _loadMapData
 0000:153E       _loadMap
 0000:19F7       _main
 0000:1A5E       _p_atob
 0000:1A63       _p_atos
 0000:1A81       _p_close
 0000:1A89       _p_date
 0000:1A8F       _p_open
 0000:1A9D       _p_read
 0000:1AA5       _p_sgclose
 0000:1AAF       _p_sgcopyfr
 0000:1AB9       _p_sgcopyto
 0000:1AC3       _p_sgcreate
 0000:1ACB       _p_sgopen
 0000:1AD3       _p_sleep
 0000:1ADD       _p_slen
 0000:1AE0       _wConnect
 0000:1AE5       _wInvalidateWin
 0000:1AEA       _wValidateWin
 0000:1AEF       _wEndRedraw
 0000:1AF4       _wCreateWindow
 0000:1AF9       _wInitialiseWindowTree
 0000:1AFE       _gCreateBit
 0000:1B07       _gPrintText
 0000:1B0C       _gCopyBit
 0000:1B11       _gCreateGC
 0000:1B16       _wGetEventSpecial
 0000:1B1B       _wFlush
 0000:1B20       _wBeginRedrawWinGC0
 0000:1B27       _gCreateGC0
 0000:1B2E       _gSetGC0
 0000:1B35       _wCompatibilityMode
 0000:1B3D       __FatalErrorPos
 0000:1B46       __FatalError
 0000:1B4A       _ExtCatTable
 0000:1B4A       _ClassTable
 0000:1B4C       N$StdRet
 0000:1B56       N$SgnMol
 0000:1B56       N$UnsMol
 0000:1BB5       N$SgnDiv
 0000:1C6E       N$UnsMul
 0000:1CB2       N$LngShl
 0000:1CBD       N$LngShr
 0000:1CC8       N$CnsStk
 0000:1CCE       N$CnsPtr
 0000:1CD4       N$CnsIdx
 0000:1CDA       N$CnsOvr
 0000:1CE0       N$CnsRng
 0000:1CE6       N$CnsRet
 0000:1CEC       N$CnsCase
 0000:1CF2       N$CnsDiv
 0000:1CF8       N$CnsPVC
 0000:1D22       __FloatInit
 0000:1D25       __FloatJmpRestore
 0000:1D25       __FloatFinish
 0000:1D25       __FloatJmpSave
 0000:1D25       __FloatMathExcepDos
 0000:1D25       __FloatInitInstance
 02D3:0000       _DatWordDead
 02D3:0002       _DatHandNext
 02D3:0004       _DatHandPrev
 02D3:0006       _DatCountrySeg
 02D3:0008       _DatClassHandle
 02D3:000A       _DatClassPtr
 02D3:000C       _DatEClassHandle
 02D3:000E       _DatEClassPtr
 02D3:0010       _DatEnterFramePtr
 02D3:0012       _w_ws
 02D3:0014       _w_am
 02D3:0016       _wClientData
 02D3:0018       _wserv_channel
 02D3:001A       _T
 02D3:001C       _r
 02D3:001E       _DatOsFramePtr
 02D3:0020       _DatATFlag
 02D3:0021       _DatHeapLocked
 02D3:0022       _DatProcessNamePtr
 02D3:0024       _DatCommandPtr
 02D3:0026       _DatTest
 02D3:0028       _DatApp1
 02D3:002A       _DatApp2
 02D3:002C       _DatApp3
 02D3:002E       _DatApp4
 02D3:0030       _DatApp5
 02D3:0032       _DatApp6
 02D3:0034       _DatApp7
 02D3:0036       _DatDialogPtr
 02D3:0038       _DatGate
 02D3:003A       _DatLocked
 02D3:003C       _DatStatusNamePtr
 02D3:003E       _DatUsedPathNamePtr
 02D3:1000       __init_begin
 02D3:1002       __const_start
 02D3:1002       __init_start
 02D3:149D       _sincos_tab
 02D3:1CE0       __data_start
 02D3:1CE0       CoreSig@CnsHandler
 02D3:1CE2       @InitPointer
 02D3:1CE4       @InitPriority
 02D3:1CE5       _blackBm
 02D3:1CE7       _greyBm
 02D3:1CFB       _pos
 02D3:1D01       _dbgval
 02D3:1D30       __bss_start
 02D3:1D30       __SH_sword
 02D3:1D32       @InitCount
 02D3:1D34       @InitEnd
 02D3:1D36       @InitDone
 02D3:1D38       @ExitCode
 02D3:1D3A       @StackContextSP
 02D3:1D3C       @StackContextBP
 02D3:1D3E       _screenBm
 02D3:698E       _map
 02D3:89C0       __bss_end

Program entry point at 0000:0000
