
 Start  Stop   Length Name               Class              Group

 00000H 029EEH 029EEH _TEXT              CODE               (none)
 029F0H 039F0H 01000H STACK              STACK              (none)
 039F0H 049F0H 01000H _MAGIC             MAGIC              DGROUP 
 049F0H 049F2H 00002H _INIT              DATA               DGROUP 
 049F2H 056EAH 00CF8H _CONST             DATA               DGROUP 
 056F0H 05736H 00046H _DATA              DATA               DGROUP 
 05730H 0C87AH 0714AH _BSS               BSS                DGROUP 
 0C880H 0C886H 00006H BSS_END            BSS                DGROUP 

  Address         Publics by Value

 0000:0000       __init0
 0000:000E       _p_leave
 0000:0016       __begin
 0000:0037       _p_abort
 0000:003E       __fp_0
 0000:003F       __fp_1
 0000:0040       __sigFp
 0000:0043       __math_excep
 0000:004C       __InitSetup
 0000:0069       __InitLoop
 0000:00C3       _p_exit
 0000:021F       _bmClearScreen
 0000:0283       _bmFillRect
 0000:02D1       _bmFillRect4
 0000:0324       _bmDrawRect
 0000:03C0       _bmClearRect
 0000:040E       _bmClearRect4
 0000:0461       _bmFillPattern4
 0000:0C28       _resetEnemy
 0000:0C2E       _getEnemyCell
 0000:0D2B       _getEnemy
 0000:0D45       _runAI
 0000:112B       _initPlayer
 0000:1145       _updatePlayer
 0000:18DB       _draw
 0000:1F42       _loadSprite
 0000:20A6       _projectSprite
 0000:213B       _drawSprite
 0000:22E7       _drawDbgText
 0000:2304       _loadMapData
 0000:2327       _getCellEncoding
 0000:23A2       _loadMap
 0000:2466       _disableMemProtection
 0000:246B       _enableMemProtection
 0000:2470       _blitVideoMem
 0000:26CA       _main
 0000:2731       _p_atob
 0000:2736       _p_atos
 0000:2754       _p_close
 0000:275C       _p_date
 0000:2762       _p_open
 0000:2770       _p_read
 0000:2778       _p_getscancodes
 0000:277D       _p_sgclose
 0000:2787       _p_sgcopyfr
 0000:2791       _p_sgcopyto
 0000:279B       _p_sgcreate
 0000:27A3       _p_sleept
 0000:27AD       _p_slen
 0000:27B0       _wConnect
 0000:27B5       _wInvalidateWin
 0000:27BA       _wValidateWin
 0000:27BF       _wEndRedraw
 0000:27C4       _wCreateWindow
 0000:27C9       _wInitialiseWindowTree
 0000:27CE       _gPrintText
 0000:27D3       _gCreateGC
 0000:27D8       _wGetEventSpecial
 0000:27DD       _wGetEventWait
 0000:27EA       _wFlush
 0000:27EF       _wBeginRedrawWinGC0
 0000:27F6       _gCreateGC0
 0000:27FD       _wCompatibilityMode
 0000:2805       __FatalErrorPos
 0000:280E       __FatalError
 0000:2812       _ExtCatTable
 0000:2812       _ClassTable
 0000:2814       N$StdRet
 0000:281E       N$SgnMol
 0000:281E       N$UnsMol
 0000:287D       N$SgnDiv
 0000:2936       N$UnsMul
 0000:297A       N$LngShl
 0000:2985       N$LngShr
 0000:2990       N$CnsStk
 0000:2996       N$CnsPtr
 0000:299C       N$CnsIdx
 0000:29A2       N$CnsOvr
 0000:29A8       N$CnsRng
 0000:29AE       N$CnsRet
 0000:29B4       N$CnsCase
 0000:29BA       N$CnsDiv
 0000:29C0       N$CnsPVC
 0000:29EA       __FloatInit
 0000:29ED       __FloatJmpRestore
 0000:29ED       __FloatFinish
 0000:29ED       __FloatJmpSave
 0000:29ED       __FloatMathExcepDos
 0000:29ED       __FloatInitInstance
 039F:0000       _DatWordDead
 039F:0002       _DatHandNext
 039F:0004       _DatHandPrev
 039F:0006       _DatCountrySeg
 039F:0008       _DatClassHandle
 039F:000A       _DatClassPtr
 039F:000C       _DatEClassHandle
 039F:000E       _DatEClassPtr
 039F:0010       _DatEnterFramePtr
 039F:0012       _w_ws
 039F:0014       _w_am
 039F:0016       _wClientData
 039F:0018       _wserv_channel
 039F:001A       _T
 039F:001C       _r
 039F:001E       _DatOsFramePtr
 039F:0020       _DatATFlag
 039F:0021       _DatHeapLocked
 039F:0022       _DatProcessNamePtr
 039F:0024       _DatCommandPtr
 039F:0026       _DatTest
 039F:0028       _DatApp1
 039F:002A       _DatApp2
 039F:002C       _DatApp3
 039F:002E       _DatApp4
 039F:0030       _DatApp5
 039F:0032       _DatApp6
 039F:0034       _DatApp7
 039F:0036       _DatDialogPtr
 039F:0038       _DatGate
 039F:003A       _DatLocked
 039F:003C       _DatStatusNamePtr
 039F:003E       _DatUsedPathNamePtr
 039F:1000       __init_begin
 039F:1002       __const_start
 039F:1002       __init_start
 039F:14DE       _sincos_tab
 039F:1D00       __data_start
 039F:1D00       CoreSig@CnsHandler
 039F:1D02       @InitPointer
 039F:1D04       @InitPriority
 039F:1D05       _blackBm
 039F:1D07       _greyBm
 039F:1D19       _enemyCount
 039F:1D1D       _pos
 039F:1D40       __bss_start
 039F:1D40       __SH_sword
 039F:1D42       @InitCount
 039F:1D44       @InitEnd
 039F:1D46       @InitDone
 039F:1D48       @ExitCode
 039F:1D4A       @StackContextSP
 039F:1D4C       @StackContextBP
 039F:1D4E       _screenBm
 039F:454E       _enemyList
 039F:6E5E       _map
 039F:8E90       __bss_end

Program entry point at 0000:0000
