
 Start  Stop   Length Name               Class              Group

 00000H 01D59H 01D59H _TEXT              CODE               (none)
 01D60H 02D60H 01000H STACK              STACK              (none)
 02D60H 03D60H 01000H _MAGIC             MAGIC              DGROUP 
 03D60H 03D62H 00002H _INIT              DATA               DGROUP 
 03D62H 04A4CH 00CEAH _CONST             DATA               DGROUP 
 04A50H 04A97H 00047H _DATA              DATA               DGROUP 
 04AA0H 0A777H 05CD7H _BSS               BSS                DGROUP 
 0A770H 0A776H 00006H BSS_END            BSS                DGROUP 

  Address         Publics by Value

 0000:0000       __init0
 0000:000E       _p_leave
 0000:0016       __begin
 0000:0037       _p_abort
 0000:003E       __fp_0
 0000:003F       __fp_1
 0000:0040       __sigFp
 0000:0043       __math_excep
 0000:004C       __InitSetup
 0000:0069       __InitLoop
 0000:00C3       _p_exit
 0000:021F       _bmClearScreen
 0000:0283       _bmFillRect
 0000:02D1       _bmFillRect4
 0000:0324       _bmDrawRect
 0000:03C0       _bmClearRect
 0000:040E       _bmClearRect4
 0000:0461       _bmFillPattern4
 0000:0BF9       _draw
 0000:11FD       _loadSprite
 0000:1314       _projectSprite
 0000:13D3       _drawSprite
 0000:157F       _setDbgInt
 0000:1594       _drawDbgText
 0000:15B1       _loadMapData
 0000:15D4       _loadMap
 0000:1A2A       _main
 0000:1A91       _p_atob
 0000:1A96       _p_atos
 0000:1AB4       _p_close
 0000:1ABC       _p_date
 0000:1AC2       _p_open
 0000:1AD0       _p_read
 0000:1AD8       _p_sgclose
 0000:1AE2       _p_sgcopyfr
 0000:1AEC       _p_sgcopyto
 0000:1AF6       _p_sgcreate
 0000:1AFE       _p_sgopen
 0000:1B06       _p_sleep
 0000:1B10       _p_slen
 0000:1B13       _wConnect
 0000:1B18       _wInvalidateWin
 0000:1B1D       _wValidateWin
 0000:1B22       _wEndRedraw
 0000:1B27       _wCreateWindow
 0000:1B2C       _wInitialiseWindowTree
 0000:1B31       _gCreateBit
 0000:1B3A       _gPrintText
 0000:1B3F       _gCopyBit
 0000:1B44       _gCreateGC
 0000:1B49       _wGetEventSpecial
 0000:1B4E       _wFlush
 0000:1B53       _wBeginRedrawWinGC0
 0000:1B5A       _gCreateGC0
 0000:1B61       _gSetGC0
 0000:1B68       _wCompatibilityMode
 0000:1B70       __FatalErrorPos
 0000:1B79       __FatalError
 0000:1B7D       _ExtCatTable
 0000:1B7D       _ClassTable
 0000:1B7F       N$StdRet
 0000:1B89       N$SgnMol
 0000:1B89       N$UnsMol
 0000:1BE8       N$SgnDiv
 0000:1CA1       N$UnsMul
 0000:1CE5       N$LngShl
 0000:1CF0       N$LngShr
 0000:1CFB       N$CnsStk
 0000:1D01       N$CnsPtr
 0000:1D07       N$CnsIdx
 0000:1D0D       N$CnsOvr
 0000:1D13       N$CnsRng
 0000:1D19       N$CnsRet
 0000:1D1F       N$CnsCase
 0000:1D25       N$CnsDiv
 0000:1D2B       N$CnsPVC
 0000:1D55       __FloatInit
 0000:1D58       __FloatJmpRestore
 0000:1D58       __FloatFinish
 0000:1D58       __FloatJmpSave
 0000:1D58       __FloatMathExcepDos
 0000:1D58       __FloatInitInstance
 02D6:0000       _DatWordDead
 02D6:0002       _DatHandNext
 02D6:0004       _DatHandPrev
 02D6:0006       _DatCountrySeg
 02D6:0008       _DatClassHandle
 02D6:000A       _DatClassPtr
 02D6:000C       _DatEClassHandle
 02D6:000E       _DatEClassPtr
 02D6:0010       _DatEnterFramePtr
 02D6:0012       _w_ws
 02D6:0014       _w_am
 02D6:0016       _wClientData
 02D6:0018       _wserv_channel
 02D6:001A       _T
 02D6:001C       _r
 02D6:001E       _DatOsFramePtr
 02D6:0020       _DatATFlag
 02D6:0021       _DatHeapLocked
 02D6:0022       _DatProcessNamePtr
 02D6:0024       _DatCommandPtr
 02D6:0026       _DatTest
 02D6:0028       _DatApp1
 02D6:002A       _DatApp2
 02D6:002C       _DatApp3
 02D6:002E       _DatApp4
 02D6:0030       _DatApp5
 02D6:0032       _DatApp6
 02D6:0034       _DatApp7
 02D6:0036       _DatDialogPtr
 02D6:0038       _DatGate
 02D6:003A       _DatLocked
 02D6:003C       _DatStatusNamePtr
 02D6:003E       _DatUsedPathNamePtr
 02D6:1000       __init_begin
 02D6:1002       __const_start
 02D6:1002       __init_start
 02D6:14C0       _sincos_tab
 02D6:1CF0       __data_start
 02D6:1CF0       CoreSig@CnsHandler
 02D6:1CF2       @InitPointer
 02D6:1CF4       @InitPriority
 02D6:1CF5       _blackBm
 02D6:1CF7       _greyBm
 02D6:1D0B       _pos
 02D6:1D40       __bss_start
 02D6:1D40       __SH_sword
 02D6:1D42       @InitCount
 02D6:1D44       @InitEnd
 02D6:1D46       @InitDone
 02D6:1D48       @ExitCode
 02D6:1D4A       @StackContextSP
 02D6:1D4C       @StackContextBP
 02D6:1D4E       _screenBm
 02D6:69DE       _map
 02D6:7A10       __bss_end

Program entry point at 0000:0000
