
 Start  Stop   Length Name               Class              Group

 00000H 01704H 01704H _TEXT              CODE               (none)
 01710H 02710H 01000H STACK              STACK              (none)
 02710H 03710H 01000H _MAGIC             MAGIC              DGROUP 
 03710H 03712H 00002H _INIT              DATA               DGROUP 
 03712H 03FC1H 008AFH _CONST             DATA               DGROUP 
 03FD0H 05022H 01052H _DATA              DATA               DGROUP 
 05020H 07867H 02847H _BSS               BSS                DGROUP 
 07860H 07866H 00006H BSS_END            BSS                DGROUP 

  Address         Publics by Value

 0000:0000       __init0
 0000:000E       _p_leave
 0000:0016       __begin
 0000:0037       _p_abort
 0000:003E       __fp_0
 0000:003F       __fp_1
 0000:0040       __sigFp
 0000:0043       __math_excep
 0000:004C       __InitSetup
 0000:0069       __InitLoop
 0000:00C3       _p_exit
 0000:02CF       _bmClearScreen
 0000:039D       _bmFillRect
 0000:03EB       _bmClearRect
 0000:0439       _bmFillPattern
 0000:0C13       _draw
 0000:1414       _main
 0000:1476       _p_atob
 0000:147B       _p_atos
 0000:1499       _p_date
 0000:149F       _p_sgcopyto
 0000:14A9       _p_sgopen
 0000:14B1       _p_sleep
 0000:14BB       _p_slen
 0000:14BE       _wConnect
 0000:14C3       _wInvalidateWin
 0000:14C8       _wValidateWin
 0000:14CD       _wEndRedraw
 0000:14D2       _wCreateWindow
 0000:14D7       _wInitialiseWindowTree
 0000:14DC       _gCreateBit
 0000:14E5       _gPrintText
 0000:14EA       _gCopyBit
 0000:14EF       _gCreateGC
 0000:14F4       _wGetEventSpecial
 0000:14F9       _wFlush
 0000:14FE       _wBeginRedrawWinGC0
 0000:1505       _gCreateGC0
 0000:150C       _gSetGC0
 0000:1513       _wCompatibilityMode
 0000:151B       __FatalErrorPos
 0000:1524       __FatalError
 0000:1528       _ExtCatTable
 0000:1528       _ClassTable
 0000:152A       N$StdRet
 0000:1534       N$SgnMol
 0000:1534       N$UnsMol
 0000:1593       N$SgnDiv
 0000:164C       N$UnsMul
 0000:1690       N$LngShl
 0000:169B       N$LngShr
 0000:16A6       N$CnsStk
 0000:16AC       N$CnsPtr
 0000:16B2       N$CnsIdx
 0000:16B8       N$CnsOvr
 0000:16BE       N$CnsRng
 0000:16C4       N$CnsRet
 0000:16CA       N$CnsCase
 0000:16D0       N$CnsDiv
 0000:16D6       N$CnsPVC
 0000:1700       __FloatInit
 0000:1703       __FloatJmpRestore
 0000:1703       __FloatFinish
 0000:1703       __FloatJmpSave
 0000:1703       __FloatMathExcepDos
 0000:1703       __FloatInitInstance
 0271:0000       _DatWordDead
 0271:0002       _DatHandNext
 0271:0004       _DatHandPrev
 0271:0006       _DatCountrySeg
 0271:0008       _DatClassHandle
 0271:000A       _DatClassPtr
 0271:000C       _DatEClassHandle
 0271:000E       _DatEClassPtr
 0271:0010       _DatEnterFramePtr
 0271:0012       _w_ws
 0271:0014       _w_am
 0271:0016       _wClientData
 0271:0018       _wserv_channel
 0271:001A       _T
 0271:001C       _r
 0271:001E       _DatOsFramePtr
 0271:0020       _DatATFlag
 0271:0021       _DatHeapLocked
 0271:0022       _DatProcessNamePtr
 0271:0024       _DatCommandPtr
 0271:0026       _DatTest
 0271:0028       _DatApp1
 0271:002A       _DatApp2
 0271:002C       _DatApp3
 0271:002E       _DatApp4
 0271:0030       _DatApp5
 0271:0032       _DatApp6
 0271:0034       _DatApp7
 0271:0036       _DatDialogPtr
 0271:0038       _DatGate
 0271:003A       _DatLocked
 0271:003C       _DatStatusNamePtr
 0271:003E       _DatUsedPathNamePtr
 0271:1000       __init_begin
 0271:1002       __const_start
 0271:1002       __init_start
 0271:107C       _sincos_tab
 0271:18C0       __data_start
 0271:18C0       CoreSig@CnsHandler
 0271:18C2       @InitPointer
 0271:18C4       @InitPriority
 0271:18C5       _blackBm
 0271:18C7       _greyBm
 0271:18D9       _map
 0271:28D9       _pos
 0271:28DF       _dbgval
 0271:2910       __bss_start
 0271:2910       __SH_sword
 0271:2912       @InitCount
 0271:2914       @InitEnd
 0271:2916       @InitDone
 0271:2918       @ExitCode
 0271:291A       @StackContextSP
 0271:291C       @StackContextBP
 0271:291E       _screenBm
 0271:5150       __bss_end

Program entry point at 0000:0000
