
 Start  Stop   Length Name               Class              Group

 00000H 03442H 03442H _TEXT              CODE               (none)
 03450H 04450H 01000H STACK              STACK              (none)
 04450H 05450H 01000H _MAGIC             MAGIC              DGROUP 
 05450H 05452H 00002H _INIT              DATA               DGROUP 
 05452H 06195H 00D43H _CONST             DATA               DGROUP 
 061A0H 061F8H 00058H _DATA              DATA               DGROUP 
 061F0H 0E6D9H 084E9H _BSS               BSS                DGROUP 
 0E6E0H 0E6EAH 0000AH BSS_END            BSS                DGROUP 

  Address         Publics by Value

 0000:0000       __init0
 0000:000E       _p_leave
 0000:0016       __begin
 0000:0037       _p_abort
 0000:003E       __fp_0
 0000:003F       __fp_1
 0000:0040       __sigFp
 0000:0043       __math_excep
 0000:004C       __InitSetup
 0000:0069       __InitLoop
 0000:00C3       _p_exit
 0000:021F       _bmClearScreen
 0000:0283       _bmFillRect
 0000:02D1       _bmFillRect4
 0000:0324       _bmDrawRect
 0000:03C0       _bmClearRect
 0000:040E       _bmClearRect4
 0000:0461       _bmFillPattern4
 0000:0C93       _resetEnemy
 0000:0C99       _getEnemyCell
 0000:0D6E       _getEnemy
 0000:0D88       _damageEnemy
 0000:0DD0       _runAI
 0000:12A5       _initPlayer
 0000:12E8       _updatePlayer
 0000:1BA4       _draw
 0000:24D6       _loadSprite
 0000:26A1       _projectSprite
 0000:2736       _drawProjectedSprite
 0000:2B07       _drawSprite
 0000:2CC3       _drawDbgText
 0000:2CE0       _loadMapData
 0000:2D13       _getCellEncoding
 0000:2D8E       _loadMap
 0000:2E52       _disableMemProtection
 0000:2E57       _enableMemProtection
 0000:2E5C       _blitVideoMem
 0000:3124       _main
 0000:318B       _p_atob
 0000:3190       _p_atos
 0000:31AE       _p_close
 0000:31B6       _p_setirpowerlevel
 0000:31BB       _p_returntickcount
 0000:31C0       _p_open
 0000:31CE       _p_read
 0000:31D6       _p_getscancodes
 0000:31DB       _p_sgclose
 0000:31E5       _p_sgcopyfr
 0000:31EF       _p_sgcopyto
 0000:31F9       _p_sgcreate
 0000:3201       _p_slen
 0000:3204       _wConnect
 0000:3209       _wInvalidateWin
 0000:320E       _wValidateWin
 0000:3213       _wEndRedraw
 0000:3218       _wCreateWindow
 0000:321D       _wInitialiseWindowTree
 0000:3222       _gPrintText
 0000:3227       _gCreateGC
 0000:322C       _wGetEventSpecial
 0000:3231       _wGetEventWait
 0000:323E       _wFlush
 0000:3243       _wBeginRedrawWinGC0
 0000:324A       _gCreateGC0
 0000:3251       _wCompatibilityMode
 0000:3259       __FatalErrorPos
 0000:3262       __FatalError
 0000:3266       _ExtCatTable
 0000:3266       _ClassTable
 0000:3268       N$StdRet
 0000:3272       N$SgnMol
 0000:3272       N$UnsMol
 0000:32D1       N$SgnDiv
 0000:338A       N$UnsMul
 0000:33CE       N$LngShl
 0000:33D9       N$LngShr
 0000:33E4       N$CnsStk
 0000:33EA       N$CnsPtr
 0000:33F0       N$CnsIdx
 0000:33F6       N$CnsOvr
 0000:33FC       N$CnsRng
 0000:3402       N$CnsRet
 0000:3408       N$CnsCase
 0000:340E       N$CnsDiv
 0000:3414       N$CnsPVC
 0000:343E       __FloatInit
 0000:3441       __FloatJmpRestore
 0000:3441       __FloatFinish
 0000:3441       __FloatJmpSave
 0000:3441       __FloatMathExcepDos
 0000:3441       __FloatInitInstance
 0445:0000       _DatWordDead
 0445:0002       _DatHandNext
 0445:0004       _DatHandPrev
 0445:0006       _DatCountrySeg
 0445:0008       _DatClassHandle
 0445:000A       _DatClassPtr
 0445:000C       _DatEClassHandle
 0445:000E       _DatEClassPtr
 0445:0010       _DatEnterFramePtr
 0445:0012       _w_ws
 0445:0014       _w_am
 0445:0016       _wClientData
 0445:0018       _wserv_channel
 0445:001A       _T
 0445:001C       _r
 0445:001E       _DatOsFramePtr
 0445:0020       _DatATFlag
 0445:0021       _DatHeapLocked
 0445:0022       _DatProcessNamePtr
 0445:0024       _DatCommandPtr
 0445:0026       _DatTest
 0445:0028       _DatApp1
 0445:002A       _DatApp2
 0445:002C       _DatApp3
 0445:002E       _DatApp4
 0445:0030       _DatApp5
 0445:0032       _DatApp6
 0445:0034       _DatApp7
 0445:0036       _DatDialogPtr
 0445:0038       _DatGate
 0445:003A       _DatLocked
 0445:003C       _DatStatusNamePtr
 0445:003E       _DatUsedPathNamePtr
 0445:1000       __init_begin
 0445:1002       __const_start
 0445:1002       __init_start
 0445:1004       _enemyStats
 0445:1020       _weapons
 0445:151E       _sincos_tab
 0445:1D50       __data_start
 0445:1D50       CoreSig@CnsHandler
 0445:1D52       @InitPointer
 0445:1D54       @InitPriority
 0445:1D55       _blackBm
 0445:1D57       _greyBm
 0445:1D69       _enemyCount
 0445:1D6D       _player
 0445:1D9C       _keys
 0445:1DA0       __bss_start
 0445:1DA0       __SH_sword
 0445:1DA2       @InitCount
 0445:1DA4       @InitEnd
 0445:1DA6       @InitDone
 0445:1DA8       @ExitCode
 0445:1DAA       @StackContextSP
 0445:1DAC       @StackContextBP
 0445:1DAE       _screenBm
 0445:45AE       _enemyList
 0445:825A       _map
 0445:A290       __bss_end

Program entry point at 0000:0000
