
 Start  Stop   Length Name               Class              Group

 00000H 016D2H 016D2H _TEXT              CODE               (none)
 016E0H 026E0H 01000H STACK              STACK              (none)
 026E0H 036E0H 01000H _MAGIC             MAGIC              DGROUP 
 036E0H 036E2H 00002H _INIT              DATA               DGROUP 
 036E2H 03F91H 008AFH _CONST             DATA               DGROUP 
 03FA0H 04FEAH 0104AH _DATA              DATA               DGROUP 
 04FE0H 0781FH 0283FH _BSS               BSS                DGROUP 
 07820H 07826H 00006H BSS_END            BSS                DGROUP 

  Address         Publics by Value

 0000:0000       __init0
 0000:000E       _p_leave
 0000:0016       __begin
 0000:0037       _p_abort
 0000:003E       __fp_0
 0000:003F       __fp_1
 0000:0040       __sigFp
 0000:0043       __math_excep
 0000:004C       __InitSetup
 0000:0069       __InitLoop
 0000:00C3       _p_exit
 0000:02CF       _bmClearScreen
 0000:0348       _bmFillRect
 0000:0396       _bmClearRect
 0000:03E4       _bmFillPattern
 0000:0BC2       _draw
 0000:13E2       _main
 0000:1444       _p_atob
 0000:1449       _p_atos
 0000:1467       _p_date
 0000:146D       _p_sgcopyto
 0000:1477       _p_sgopen
 0000:147F       _p_sleep
 0000:1489       _p_slen
 0000:148C       _wConnect
 0000:1491       _wInvalidateWin
 0000:1496       _wValidateWin
 0000:149B       _wEndRedraw
 0000:14A0       _wCreateWindow
 0000:14A5       _wInitialiseWindowTree
 0000:14AA       _gCreateBit
 0000:14B3       _gPrintText
 0000:14B8       _gCopyBit
 0000:14BD       _gCreateGC
 0000:14C2       _wGetEventSpecial
 0000:14C7       _wFlush
 0000:14CC       _wBeginRedrawWinGC0
 0000:14D3       _gCreateGC0
 0000:14DA       _gSetGC0
 0000:14E1       _wCompatibilityMode
 0000:14E9       __FatalErrorPos
 0000:14F2       __FatalError
 0000:14F6       _ExtCatTable
 0000:14F6       _ClassTable
 0000:14F8       N$StdRet
 0000:1502       N$SgnMol
 0000:1502       N$UnsMol
 0000:1561       N$SgnDiv
 0000:161A       N$UnsMul
 0000:165E       N$LngShl
 0000:1669       N$LngShr
 0000:1674       N$CnsStk
 0000:167A       N$CnsPtr
 0000:1680       N$CnsIdx
 0000:1686       N$CnsOvr
 0000:168C       N$CnsRng
 0000:1692       N$CnsRet
 0000:1698       N$CnsCase
 0000:169E       N$CnsDiv
 0000:16A4       N$CnsPVC
 0000:16CE       __FloatInit
 0000:16D1       __FloatJmpRestore
 0000:16D1       __FloatFinish
 0000:16D1       __FloatJmpSave
 0000:16D1       __FloatMathExcepDos
 0000:16D1       __FloatInitInstance
 026E:0000       _DatWordDead
 026E:0002       _DatHandNext
 026E:0004       _DatHandPrev
 026E:0006       _DatCountrySeg
 026E:0008       _DatClassHandle
 026E:000A       _DatClassPtr
 026E:000C       _DatEClassHandle
 026E:000E       _DatEClassPtr
 026E:0010       _DatEnterFramePtr
 026E:0012       _w_ws
 026E:0014       _w_am
 026E:0016       _wClientData
 026E:0018       _wserv_channel
 026E:001A       _T
 026E:001C       _r
 026E:001E       _DatOsFramePtr
 026E:0020       _DatATFlag
 026E:0021       _DatHeapLocked
 026E:0022       _DatProcessNamePtr
 026E:0024       _DatCommandPtr
 026E:0026       _DatTest
 026E:0028       _DatApp1
 026E:002A       _DatApp2
 026E:002C       _DatApp3
 026E:002E       _DatApp4
 026E:0030       _DatApp5
 026E:0032       _DatApp6
 026E:0034       _DatApp7
 026E:0036       _DatDialogPtr
 026E:0038       _DatGate
 026E:003A       _DatLocked
 026E:003C       _DatStatusNamePtr
 026E:003E       _DatUsedPathNamePtr
 026E:1000       __init_begin
 026E:1002       __const_start
 026E:1002       __init_start
 026E:107C       _sincos_tab
 026E:18C0       __data_start
 026E:18C0       CoreSig@CnsHandler
 026E:18C2       @InitPointer
 026E:18C4       @InitPriority
 026E:18D5       _map
 026E:28D5       _bmHandles
 026E:28D9       _pos
 026E:28DF       _dbgval
 026E:2900       __bss_start
 026E:2900       __SH_sword
 026E:2902       @InitCount
 026E:2904       @InitEnd
 026E:2906       @InitDone
 026E:2908       @ExitCode
 026E:290A       @StackContextSP
 026E:290C       @StackContextBP
 026E:290E       _blackBm
 026E:3D0E       _greyBm
 026E:5140       __bss_end

Program entry point at 0000:0000
