
 Start  Stop   Length Name               Class              Group

 00000H 0263DH 0263DH _TEXT              CODE               (none)
 02640H 03640H 01000H STACK              STACK              (none)
 03640H 04640H 01000H _MAGIC             MAGIC              DGROUP 
 04640H 04642H 00002H _INIT              DATA               DGROUP 
 04642H 0534AH 00D08H _CONST             DATA               DGROUP 
 05350H 0539DH 0004DH _DATA              DATA               DGROUP 
 053A0H 0C373H 06FD3H _BSS               BSS                DGROUP 
 0C370H 0C376H 00006H BSS_END            BSS                DGROUP 

  Address         Publics by Value

 0000:0000       __init0
 0000:000E       _p_leave
 0000:0016       __begin
 0000:0037       _p_abort
 0000:003E       __fp_0
 0000:003F       __fp_1
 0000:0040       __sigFp
 0000:0043       __math_excep
 0000:004C       __InitSetup
 0000:0069       __InitLoop
 0000:00C3       _p_exit
 0000:021F       _bmClearScreen
 0000:0283       _bmFillRect
 0000:02D1       _bmFillRect4
 0000:0324       _bmDrawRect
 0000:03C0       _bmClearRect
 0000:040E       _bmClearRect4
 0000:0461       _bmFillPattern4
 0000:09D2       _resetEnemy
 0000:09D8       _getEnemyCell
 0000:0AB7       _getEnemy
 0000:0AD1       _runAI
 0000:1415       _draw
 0000:1A86       _loadSprite
 0000:1BEA       _projectSprite
 0000:1C90       _drawSprite
 0000:1E3C       _drawDbgText
 0000:1E59       _loadMapData
 0000:1E7C       _getCellEncoding
 0000:1EF7       _loadMap
 0000:230E       _main
 0000:2375       _p_atob
 0000:237A       _p_atos
 0000:2398       _p_close
 0000:23A0       _p_date
 0000:23A6       _p_open
 0000:23B4       _p_read
 0000:23BC       _p_sgclose
 0000:23C6       _p_sgcopyfr
 0000:23D0       _p_sgcopyto
 0000:23DA       _p_sgcreate
 0000:23E2       _p_sgopen
 0000:23EA       _p_sleep
 0000:23F4       _p_slen
 0000:23F7       _wConnect
 0000:23FC       _wInvalidateWin
 0000:2401       _wValidateWin
 0000:2406       _wEndRedraw
 0000:240B       _wCreateWindow
 0000:2410       _wInitialiseWindowTree
 0000:2415       _gCreateBit
 0000:241E       _gPrintText
 0000:2423       _gCopyBit
 0000:2428       _gCreateGC
 0000:242D       _wGetEventSpecial
 0000:2432       _wFlush
 0000:2437       _wBeginRedrawWinGC0
 0000:243E       _gCreateGC0
 0000:2445       _gSetGC0
 0000:244C       _wCompatibilityMode
 0000:2454       __FatalErrorPos
 0000:245D       __FatalError
 0000:2461       _ExtCatTable
 0000:2461       _ClassTable
 0000:2463       N$StdRet
 0000:246D       N$SgnMol
 0000:246D       N$UnsMol
 0000:24CC       N$SgnDiv
 0000:2585       N$UnsMul
 0000:25C9       N$LngShl
 0000:25D4       N$LngShr
 0000:25DF       N$CnsStk
 0000:25E5       N$CnsPtr
 0000:25EB       N$CnsIdx
 0000:25F1       N$CnsOvr
 0000:25F7       N$CnsRng
 0000:25FD       N$CnsRet
 0000:2603       N$CnsCase
 0000:2609       N$CnsDiv
 0000:260F       N$CnsPVC
 0000:2639       __FloatInit
 0000:263C       __FloatJmpRestore
 0000:263C       __FloatFinish
 0000:263C       __FloatJmpSave
 0000:263C       __FloatMathExcepDos
 0000:263C       __FloatInitInstance
 0364:0000       _DatWordDead
 0364:0002       _DatHandNext
 0364:0004       _DatHandPrev
 0364:0006       _DatCountrySeg
 0364:0008       _DatClassHandle
 0364:000A       _DatClassPtr
 0364:000C       _DatEClassHandle
 0364:000E       _DatEClassPtr
 0364:0010       _DatEnterFramePtr
 0364:0012       _w_ws
 0364:0014       _w_am
 0364:0016       _wClientData
 0364:0018       _wserv_channel
 0364:001A       _T
 0364:001C       _r
 0364:001E       _DatOsFramePtr
 0364:0020       _DatATFlag
 0364:0021       _DatHeapLocked
 0364:0022       _DatProcessNamePtr
 0364:0024       _DatCommandPtr
 0364:0026       _DatTest
 0364:0028       _DatApp1
 0364:002A       _DatApp2
 0364:002C       _DatApp3
 0364:002E       _DatApp4
 0364:0030       _DatApp5
 0364:0032       _DatApp6
 0364:0034       _DatApp7
 0364:0036       _DatDialogPtr
 0364:0038       _DatGate
 0364:003A       _DatLocked
 0364:003C       _DatStatusNamePtr
 0364:003E       _DatUsedPathNamePtr
 0364:1000       __init_begin
 0364:1002       __const_start
 0364:1002       __init_start
 0364:14DE       _sincos_tab
 0364:1D10       __data_start
 0364:1D10       CoreSig@CnsHandler
 0364:1D12       @InitPointer
 0364:1D14       @InitPriority
 0364:1D15       _blackBm
 0364:1D17       _greyBm
 0364:1D29       _enemyCount
 0364:1D2F       _pos
 0364:1D60       __bss_start
 0364:1D60       __SH_sword
 0364:1D62       @InitCount
 0364:1D64       @InitEnd
 0364:1D66       @InitDone
 0364:1D68       @ExitCode
 0364:1D6A       @StackContextSP
 0364:1D6C       @StackContextBP
 0364:1D6E       _screenBm
 0364:456E       _enemyList
 0364:6CFE       _map
 0364:8D30       __bss_end

Program entry point at 0000:0000
