
 Start  Stop   Length Name               Class              Group

 00000H 01DD5H 01DD5H _TEXT              CODE               (none)
 01DE0H 02DE0H 01000H STACK              STACK              (none)
 02DE0H 03DE0H 01000H _MAGIC             MAGIC              DGROUP 
 03DE0H 03DE2H 00002H _INIT              DATA               DGROUP 
 03DE2H 04AEDH 00D0BH _CONST             DATA               DGROUP 
 04AF0H 04B36H 00046H _DATA              DATA               DGROUP 
 04B40H 0B817H 06CD7H _BSS               BSS                DGROUP 
 0B810H 0B816H 00006H BSS_END            BSS                DGROUP 

  Address         Publics by Value

 0000:0000       __init0
 0000:000E       _p_leave
 0000:0016       __begin
 0000:0037       _p_abort
 0000:003E       __fp_0
 0000:003F       __fp_1
 0000:0040       __sigFp
 0000:0043       __math_excep
 0000:004C       __InitSetup
 0000:0069       __InitLoop
 0000:00C3       _p_exit
 0000:021F       _bmClearScreen
 0000:0283       _bmFillRect
 0000:02D1       _bmFillRect4
 0000:0324       _bmDrawRect
 0000:03C0       _bmClearRect
 0000:040E       _bmClearRect4
 0000:0461       _bmFillPattern4
 0000:0BC6       _draw
 0000:11DD       _loadSprite
 0000:1341       _projectSprite
 0000:1400       _drawSprite
 0000:15AC       _setDbgInt
 0000:15C1       _drawDbgText
 0000:15DE       _loadMapData
 0000:1601       _getCellEncoding
 0000:1697       _loadMap
 0000:1AA6       _main
 0000:1B0D       _p_atob
 0000:1B12       _p_atos
 0000:1B30       _p_close
 0000:1B38       _p_date
 0000:1B3E       _p_open
 0000:1B4C       _p_read
 0000:1B54       _p_sgclose
 0000:1B5E       _p_sgcopyfr
 0000:1B68       _p_sgcopyto
 0000:1B72       _p_sgcreate
 0000:1B7A       _p_sgopen
 0000:1B82       _p_sleep
 0000:1B8C       _p_slen
 0000:1B8F       _wConnect
 0000:1B94       _wInvalidateWin
 0000:1B99       _wValidateWin
 0000:1B9E       _wEndRedraw
 0000:1BA3       _wCreateWindow
 0000:1BA8       _wInitialiseWindowTree
 0000:1BAD       _gCreateBit
 0000:1BB6       _gPrintText
 0000:1BBB       _gCopyBit
 0000:1BC0       _gCreateGC
 0000:1BC5       _wGetEventSpecial
 0000:1BCA       _wFlush
 0000:1BCF       _wBeginRedrawWinGC0
 0000:1BD6       _gCreateGC0
 0000:1BDD       _gSetGC0
 0000:1BE4       _wCompatibilityMode
 0000:1BEC       __FatalErrorPos
 0000:1BF5       __FatalError
 0000:1BF9       _ExtCatTable
 0000:1BF9       _ClassTable
 0000:1BFB       N$StdRet
 0000:1C05       N$SgnMol
 0000:1C05       N$UnsMol
 0000:1C64       N$SgnDiv
 0000:1D1D       N$UnsMul
 0000:1D61       N$LngShl
 0000:1D6C       N$LngShr
 0000:1D77       N$CnsStk
 0000:1D7D       N$CnsPtr
 0000:1D83       N$CnsIdx
 0000:1D89       N$CnsOvr
 0000:1D8F       N$CnsRng
 0000:1D95       N$CnsRet
 0000:1D9B       N$CnsCase
 0000:1DA1       N$CnsDiv
 0000:1DA7       N$CnsPVC
 0000:1DD1       __FloatInit
 0000:1DD4       __FloatJmpRestore
 0000:1DD4       __FloatFinish
 0000:1DD4       __FloatJmpSave
 0000:1DD4       __FloatMathExcepDos
 0000:1DD4       __FloatInitInstance
 02DE:0000       _DatWordDead
 02DE:0002       _DatHandNext
 02DE:0004       _DatHandPrev
 02DE:0006       _DatCountrySeg
 02DE:0008       _DatClassHandle
 02DE:000A       _DatClassPtr
 02DE:000C       _DatEClassHandle
 02DE:000E       _DatEClassPtr
 02DE:0010       _DatEnterFramePtr
 02DE:0012       _w_ws
 02DE:0014       _w_am
 02DE:0016       _wClientData
 02DE:0018       _wserv_channel
 02DE:001A       _T
 02DE:001C       _r
 02DE:001E       _DatOsFramePtr
 02DE:0020       _DatATFlag
 02DE:0021       _DatHeapLocked
 02DE:0022       _DatProcessNamePtr
 02DE:0024       _DatCommandPtr
 02DE:0026       _DatTest
 02DE:0028       _DatApp1
 02DE:002A       _DatApp2
 02DE:002C       _DatApp3
 02DE:002E       _DatApp4
 02DE:0030       _DatApp5
 02DE:0032       _DatApp6
 02DE:0034       _DatApp7
 02DE:0036       _DatDialogPtr
 02DE:0038       _DatGate
 02DE:003A       _DatLocked
 02DE:003C       _DatStatusNamePtr
 02DE:003E       _DatUsedPathNamePtr
 02DE:1000       __init_begin
 02DE:1002       __const_start
 02DE:1002       __init_start
 02DE:14E1       _sincos_tab
 02DE:1D10       __data_start
 02DE:1D10       CoreSig@CnsHandler
 02DE:1D12       @InitPointer
 02DE:1D14       @InitPriority
 02DE:1D15       _blackBm
 02DE:1D17       _greyBm
 02DE:1D2B       _pos
 02DE:1D60       __bss_start
 02DE:1D60       __SH_sword
 02DE:1D62       @InitCount
 02DE:1D64       @InitEnd
 02DE:1D66       @InitDone
 02DE:1D68       @ExitCode
 02DE:1D6A       @StackContextSP
 02DE:1D6C       @StackContextBP
 02DE:1D6E       _screenBm
 02DE:69FE       _map
 02DE:8A30       __bss_end

Program entry point at 0000:0000
